	.file	"mksyntax.c"
	.text
.Ltext0:
	.globl	wordflags
	.section	.rodata
.LC0:
	.string	"CWORD"
.LC1:
	.string	"CSHMETA"
.LC2:
	.string	"CSHBRK"
.LC3:
	.string	"CBACKQ"
.LC4:
	.string	"CQUOTE"
.LC5:
	.string	"CSPECL"
.LC6:
	.string	"CEXP"
.LC7:
	.string	"CBSDQUOTE"
.LC8:
	.string	"CBSHDOC"
.LC9:
	.string	"CGLOB"
.LC10:
	.string	"CXGLOB"
.LC11:
	.string	"CXQUOTE"
.LC12:
	.string	"CSPECVAR"
.LC13:
	.string	"CSUBSTOP"
.LC14:
	.string	"CBLANK"
	.data
	.align 32
	.type	wordflags, @object
	.size	wordflags, 240
wordflags:
	.long	0
	.zero	4
	.quad	.LC0
	.long	1
	.zero	4
	.quad	.LC1
	.long	2
	.zero	4
	.quad	.LC2
	.long	4
	.zero	4
	.quad	.LC3
	.long	8
	.zero	4
	.quad	.LC4
	.long	16
	.zero	4
	.quad	.LC5
	.long	32
	.zero	4
	.quad	.LC6
	.long	64
	.zero	4
	.quad	.LC7
	.long	128
	.zero	4
	.quad	.LC8
	.long	256
	.zero	4
	.quad	.LC9
	.long	512
	.zero	4
	.quad	.LC10
	.long	1024
	.zero	4
	.quad	.LC11
	.long	2048
	.zero	4
	.quad	.LC12
	.long	4096
	.zero	4
	.quad	.LC13
	.long	8192
	.zero	4
	.quad	.LC14
	.comm	lsyntax,1024,32
	.comm	debug,4,4
	.comm	progname,8,8
	.globl	preamble
	.align 32
	.type	preamble, @object
	.size	preamble, 63
preamble:
	.string	"/*\n * This file was generated by mksyntax.  DO NOT EDIT.\n */\n\n"
	.globl	includes
	.align 32
	.type	includes, @object
	.size	includes, 60
includes:
	.string	"#include \"config.h\"\n#include \"stdc.h\"\n#include \"syntax.h\"\n\n"
	.section	.rodata
	.align 8
.LC15:
	.string	"%s: usage: %s [-d] [-o filename]\n"
	.text
	.type	usage, @function
usage:
.LFB0:
	.file 1 "./mksyntax.c"
	.loc 1 88 0
	.cfi_startproc
	pushq	%rbp
.LCFI0:
	.cfi_def_cfa_offset 16
	.cfi_offset 6, -16
	movq	%rsp, %rbp
.LCFI1:
	.cfi_def_cfa_register 6
	.loc 1 89 0
	movq	progname(%rip), %rcx
	movq	progname(%rip), %rdx
	movl	$.LC15, %esi
	movq	stderr(%rip), %rax
	movq	%rax, %rdi
	movl	$0, %eax
	call	fprintf
	.loc 1 90 0
	movl	$2, %edi
	call	exit
	.cfi_endproc
.LFE0:
	.size	usage, .-usage
	.section	.rodata
.LC16:
	.string	"SPC"
.LC17:
	.string	"CTLESC"
.LC18:
	.string	"CTLNUL"
.LC19:
	.string	"ESC"
.LC20:
	.string	"%d"
	.text
	.type	cdesc, @function
cdesc:
.LFB1:
	.loc 1 110 0
	.cfi_startproc
	pushq	%rbp
.LCFI2:
	.cfi_def_cfa_offset 16
	.cfi_offset 6, -16
	movq	%rsp, %rbp
.LCFI3:
	.cfi_def_cfa_register 6
	subq	$16, %rsp
	movl	%edi, -4(%rbp)
	.loc 1 113 0
	cmpl	$32, -4(%rbp)
	jne	.L3
	.loc 1 114 0
	movl	$.LC16, %eax
	jmp	.L4
.L3:
	.loc 1 115 0
	call	__ctype_b_loc
	movq	(%rax), %rax
	movl	-4(%rbp), %edx
	movslq	%edx, %rdx
	addq	%rdx, %rdx
	addq	%rdx, %rax
	movzwl	(%rax), %eax
	movzwl	%ax, %eax
	andl	$16384, %eax
	testl	%eax, %eax
	je	.L5
	.loc 1 117 0
	movl	-4(%rbp), %eax
	movb	%al, xbuf.4165(%rip)
	.loc 1 118 0
	movb	$0, xbuf.4165+1(%rip)
	.loc 1 119 0
	movl	$xbuf.4165, %eax
	jmp	.L4
.L5:
	.loc 1 121 0
	cmpl	$1, -4(%rbp)
	jne	.L6
	.loc 1 122 0
	movl	$.LC17, %eax
	jmp	.L4
.L6:
	.loc 1 123 0
	cmpl	$127, -4(%rbp)
	jne	.L7
	.loc 1 124 0
	movl	$.LC18, %eax
	jmp	.L4
.L7:
	.loc 1 125 0
	cmpl	$27, -4(%rbp)
	jne	.L8
	.loc 1 126 0
	movl	$.LC19, %eax
	jmp	.L4
.L8:
	.loc 1 128 0
	movb	$92, xbuf.4165(%rip)
	.loc 1 129 0
	movb	$0, xbuf.4165+2(%rip)
	.loc 1 131 0
	movl	-4(%rbp), %eax
	subl	$7, %eax
	cmpl	$6, %eax
	ja	.L9
	movl	%eax, %eax
	movq	.L17(,%rax,8), %rax
	jmp	*%rax
	.section	.rodata
	.align 8
	.align 4
.L17:
	.quad	.L10
	.quad	.L11
	.quad	.L12
	.quad	.L13
	.quad	.L14
	.quad	.L15
	.quad	.L16
	.text
.L10:
	.loc 1 134 0
	movb	$97, xbuf.4165+1(%rip)
	jmp	.L18
.L14:
	.loc 1 135 0
	movb	$118, xbuf.4165+1(%rip)
	jmp	.L18
.L11:
	.loc 1 140 0
	movb	$98, xbuf.4165+1(%rip)
	jmp	.L18
.L15:
	.loc 1 141 0
	movb	$102, xbuf.4165+1(%rip)
	jmp	.L18
.L13:
	.loc 1 142 0
	movb	$110, xbuf.4165+1(%rip)
	jmp	.L18
.L16:
	.loc 1 143 0
	movb	$114, xbuf.4165+1(%rip)
	jmp	.L18
.L12:
	.loc 1 144 0
	movb	$116, xbuf.4165+1(%rip)
	jmp	.L18
.L9:
	.loc 1 145 0
	movl	$.LC20, %eax
	movl	-4(%rbp), %edx
	movq	%rax, %rsi
	movl	$xbuf.4165, %edi
	movl	$0, %eax
	call	sprintf
	nop
.L18:
	.loc 1 148 0
	movl	$xbuf.4165, %eax
.L4:
	.loc 1 149 0
	leave
.LCFI4:
	.cfi_def_cfa 7, 8
	ret
	.cfi_endproc
.LFE1:
	.size	cdesc, .-cdesc
	.type	getcstr, @function
getcstr:
.LFB2:
	.loc 1 154 0
	.cfi_startproc
	pushq	%rbp
.LCFI5:
	.cfi_def_cfa_offset 16
	.cfi_offset 6, -16
	movq	%rsp, %rbp
.LCFI6:
	.cfi_def_cfa_register 6
	movl	%edi, -20(%rbp)
	.loc 1 157 0
	movl	$0, -4(%rbp)
	jmp	.L20
.L23:
	.loc 1 158 0
	movl	-4(%rbp), %eax
	cltq
	salq	$4, %rax
	addq	$wordflags, %rax
	movl	(%rax), %eax
	cmpl	-20(%rbp), %eax
	jne	.L21
	.loc 1 159 0
	movl	-4(%rbp), %eax
	cltq
	salq	$4, %rax
	addq	$wordflags, %rax
	movq	8(%rax), %rax
	jmp	.L22
.L21:
	.loc 1 157 0
	addl	$1, -4(%rbp)
.L20:
	.loc 1 157 0 is_stmt 0 discriminator 1
	movl	-4(%rbp), %eax
	cmpl	$14, %eax
	jbe	.L23
	.loc 1 160 0 is_stmt 1
	movl	$0, %eax
.L22:
	.loc 1 161 0
	popq	%rbp
.LCFI7:
	.cfi_def_cfa 7, 8
	ret
	.cfi_endproc
.LFE2:
	.size	getcstr, .-getcstr
	.section	.rodata
.LC21:
	.string	"added %s for character %s\n"
	.text
	.type	addcstr, @function
addcstr:
.LFB3:
	.loc 1 167 0
	.cfi_startproc
	pushq	%rbp
.LCFI8:
	.cfi_def_cfa_offset 16
	.cfi_offset 6, -16
	movq	%rsp, %rbp
.LCFI9:
	.cfi_def_cfa_register 6
	subq	$48, %rsp
	movq	%rdi, -40(%rbp)
	movl	%esi, -44(%rbp)
	.loc 1 171 0
	movq	-40(%rbp), %rax
	movq	%rax, -24(%rbp)
	jmp	.L25
.L28:
	.loc 1 173 0
	movq	-24(%rbp), %rax
	movzbl	(%rax), %eax
	movb	%al, -1(%rbp)
	.loc 1 175 0
	movl	debug(%rip), %eax
	testl	%eax, %eax
	je	.L26
	.loc 1 177 0
	movl	-44(%rbp), %eax
	movl	%eax, %edi
	movl	$0, %eax
	call	getcstr
	movq	%rax, -16(%rbp)
	.loc 1 178 0
	movzbl	-1(%rbp), %eax
	movl	%eax, %edi
	movl	$0, %eax
	call	cdesc
	movq	%rax, %rcx
	movl	$.LC21, %esi
	movq	stderr(%rip), %rax
	movq	-16(%rbp), %rdx
	movq	%rax, %rdi
	movl	$0, %eax
	call	fprintf
.L26:
	.loc 1 181 0
	movzbl	-1(%rbp), %ecx
	movzbl	-1(%rbp), %eax
	cltq
	movl	lsyntax(,%rax,4), %eax
	movl	%eax, %edx
	orl	-44(%rbp), %edx
	movslq	%ecx, %rax
	movl	%edx, lsyntax(,%rax,4)
	.loc 1 171 0
	addq	$1, -24(%rbp)
.L25:
	.loc 1 171 0 is_stmt 0 discriminator 1
	cmpq	$0, -24(%rbp)
	je	.L24
	.loc 1 171 0 discriminator 2
	movq	-24(%rbp), %rax
	movzbl	(%rax), %eax
	testb	%al, %al
	jne	.L28
.L24:
	.loc 1 183 0 is_stmt 1
	leave
.LCFI10:
	.cfi_def_cfa 7, 8
	ret
	.cfi_endproc
.LFE3:
	.size	addcstr, .-addcstr
	.type	addcchar, @function
addcchar:
.LFB4:
	.loc 1 189 0
	.cfi_startproc
	pushq	%rbp
.LCFI11:
	.cfi_def_cfa_offset 16
	.cfi_offset 6, -16
	movq	%rsp, %rbp
.LCFI12:
	.cfi_def_cfa_register 6
	subq	$32, %rsp
	movl	%edi, %eax
	movl	%esi, -24(%rbp)
	movb	%al, -20(%rbp)
	.loc 1 192 0
	movl	debug(%rip), %eax
	testl	%eax, %eax
	je	.L30
	.loc 1 194 0
	movl	-24(%rbp), %eax
	movl	%eax, %edi
	movl	$0, %eax
	call	getcstr
	movq	%rax, -8(%rbp)
	.loc 1 195 0
	movzbl	-20(%rbp), %eax
	movl	%eax, %edi
	movl	$0, %eax
	call	cdesc
	movq	%rax, %rcx
	movl	$.LC21, %esi
	movq	stderr(%rip), %rax
	movq	-8(%rbp), %rdx
	movq	%rax, %rdi
	movl	$0, %eax
	call	fprintf
.L30:
	.loc 1 197 0
	movzbl	-20(%rbp), %ecx
	movzbl	-20(%rbp), %eax
	cltq
	movl	lsyntax(,%rax,4), %eax
	movl	%eax, %edx
	orl	-24(%rbp), %edx
	movslq	%ecx, %rax
	movl	%edx, lsyntax(,%rax,4)
	.loc 1 198 0
	leave
.LCFI13:
	.cfi_def_cfa 7, 8
	ret
	.cfi_endproc
.LFE4:
	.size	addcchar, .-addcchar
	.type	addblanks, @function
addblanks:
.LFB5:
	.loc 1 202 0
	.cfi_startproc
	pushq	%rbp
.LCFI14:
	.cfi_def_cfa_offset 16
	.cfi_offset 6, -16
	movq	%rsp, %rbp
.LCFI15:
	.cfi_def_cfa_register 6
	pushq	%rbx
	subq	$24, %rsp
	.loc 1 206 0
	movl	$0, %ebx
	.cfi_offset 3, -24
	jmp	.L32
.L34:
	.loc 1 208 0
	movb	%bl, -17(%rbp)
	.loc 1 211 0
	call	__ctype_b_loc
	movq	(%rax), %rax
	movzbl	-17(%rbp), %edx
	addq	%rdx, %rdx
	addq	%rdx, %rax
	movzwl	(%rax), %eax
	movzwl	%ax, %eax
	andl	$1, %eax
	testb	%al, %al
	je	.L33
	.loc 1 212 0
	movzbl	-17(%rbp), %ecx
	movzbl	-17(%rbp), %eax
	cltq
	movl	lsyntax(,%rax,4), %eax
	movl	%eax, %edx
	orb	$32, %dh
	movslq	%ecx, %rax
	movl	%edx, lsyntax(,%rax,4)
.L33:
	.loc 1 206 0
	addl	$1, %ebx
.L32:
	.loc 1 206 0 is_stmt 0 discriminator 1
	cmpl	$255, %ebx
	jle	.L34
	.loc 1 214 0 is_stmt 1
	addq	$24, %rsp
	popq	%rbx
	popq	%rbp
.LCFI16:
	.cfi_def_cfa 7, 8
	ret
	.cfi_endproc
.LFE5:
	.size	addblanks, .-addblanks
	.section	.rodata
.LC22:
	.string	"()<>;&|"
.LC23:
	.string	"()<>;&| \t\n"
.LC24:
	.string	"\"`'"
.LC25:
	.string	"$<>"
.LC26:
	.string	"\\`$\"\n"
.LC27:
	.string	"\\`$"
.LC28:
	.string	"*?[]^"
.LC29:
	.string	"@*+?!"
.LC30:
	.string	"@*#?-$!"
.LC31:
	.string	"-=?+"
	.text
	.type	load_lsyntax, @function
load_lsyntax:
.LFB6:
	.loc 1 219 0
	.cfi_startproc
	pushq	%rbp
.LCFI17:
	.cfi_def_cfa_offset 16
	.cfi_offset 6, -16
	movq	%rsp, %rbp
.LCFI18:
	.cfi_def_cfa_register 6
	.loc 1 221 0
	movl	$1, %esi
	movl	$.LC22, %edi
	movl	$0, %eax
	call	addcstr
	.loc 1 224 0
	movl	$2, %esi
	movl	$.LC23, %edi
	movl	$0, %eax
	call	addcstr
	.loc 1 226 0
	movl	$4, %esi
	movl	$96, %edi
	movl	$0, %eax
	call	addcchar
	.loc 1 228 0
	movl	$8, %esi
	movl	$.LC24, %edi
	movl	$0, %eax
	call	addcstr
	.loc 1 230 0
	movl	$16, %esi
	movl	$1, %edi
	movl	$0, %eax
	call	addcchar
	.loc 1 231 0
	movl	$16, %esi
	movl	$127, %edi
	movl	$0, %eax
	call	addcchar
	.loc 1 233 0
	movl	$32, %esi
	movl	$.LC25, %edi
	movl	$0, %eax
	call	addcstr
	.loc 1 235 0
	movl	$64, %esi
	movl	$.LC26, %edi
	movl	$0, %eax
	call	addcstr
	.loc 1 236 0
	movl	$128, %esi
	movl	$.LC27, %edi
	movl	$0, %eax
	call	addcstr
	.loc 1 238 0
	movl	$256, %esi
	movl	$.LC28, %edi
	movl	$0, %eax
	call	addcstr
	.loc 1 241 0
	movl	$512, %esi
	movl	$.LC29, %edi
	movl	$0, %eax
	call	addcstr
	.loc 1 244 0
	movl	$1024, %esi
	movl	$.LC24, %edi
	movl	$0, %eax
	call	addcstr
	.loc 1 245 0
	movl	$1024, %esi
	movl	$92, %edi
	movl	$0, %eax
	call	addcchar
	.loc 1 247 0
	movl	$2048, %esi
	movl	$.LC30, %edi
	movl	$0, %eax
	call	addcstr
	.loc 1 249 0
	movl	$4096, %esi
	movl	$.LC31, %edi
	movl	$0, %eax
	call	addcstr
	.loc 1 251 0
	movl	$0, %eax
	call	addblanks
	.loc 1 252 0
	popq	%rbp
.LCFI19:
	.cfi_def_cfa 7, 8
	ret
	.cfi_endproc
.LFE6:
	.size	load_lsyntax, .-load_lsyntax
	.type	dump_lflags, @function
dump_lflags:
.LFB7:
	.loc 1 258 0
	.cfi_startproc
	pushq	%rbp
.LCFI20:
	.cfi_def_cfa_offset 16
	.cfi_offset 6, -16
	movq	%rsp, %rbp
.LCFI21:
	.cfi_def_cfa_register 6
	subq	$32, %rsp
	movq	%rdi, -24(%rbp)
	movl	%esi, -28(%rbp)
	.loc 1 261 0
	movl	-28(%rbp), %eax
	cltq
	movl	lsyntax(,%rax,4), %eax
	movl	%eax, -4(%rbp)
	.loc 1 262 0
	movl	$1, -12(%rbp)
	.loc 1 264 0
	cmpl	$0, -4(%rbp)
	jne	.L37
	.loc 1 265 0
	movq	wordflags+8(%rip), %rax
	movq	-24(%rbp), %rdx
	movq	%rdx, %rsi
	movq	%rax, %rdi
	call	fputs
	jmp	.L36
.L37:
	.loc 1 268 0
	movl	$1, -8(%rbp)
	jmp	.L39
.L43:
	.loc 1 269 0
	movl	-8(%rbp), %eax
	cltq
	salq	$4, %rax
	addq	$wordflags, %rax
	movl	(%rax), %eax
	andl	-4(%rbp), %eax
	testl	%eax, %eax
	je	.L40
	.loc 1 271 0
	cmpl	$0, -12(%rbp)
	je	.L41
	.loc 1 272 0
	movl	$0, -12(%rbp)
	jmp	.L42
.L41:
	.loc 1 274 0
	movq	-24(%rbp), %rax
	movq	%rax, %rsi
	movl	$124, %edi
	call	_IO_putc
.L42:
	.loc 1 275 0
	movl	-8(%rbp), %eax
	cltq
	salq	$4, %rax
	addq	$wordflags, %rax
	movq	8(%rax), %rax
	movq	-24(%rbp), %rdx
	movq	%rdx, %rsi
	movq	%rax, %rdi
	call	fputs
.L40:
	.loc 1 268 0
	addl	$1, -8(%rbp)
.L39:
	.loc 1 268 0 is_stmt 0 discriminator 1
	movl	-8(%rbp), %eax
	cmpl	$14, %eax
	jbe	.L43
.L36:
	.loc 1 278 0 is_stmt 1
	leave
.LCFI22:
	.cfi_def_cfa 7, 8
	ret
	.cfi_endproc
.LFE7:
	.size	dump_lflags, .-dump_lflags
	.section	.rodata
.LC32:
	.string	"\t\t/* "
.LC33:
	.string	" */"
	.text
	.type	wcomment, @function
wcomment:
.LFB8:
	.loc 1 284 0
	.cfi_startproc
	pushq	%rbp
.LCFI23:
	.cfi_def_cfa_offset 16
	.cfi_offset 6, -16
	movq	%rsp, %rbp
.LCFI24:
	.cfi_def_cfa_register 6
	subq	$16, %rsp
	movq	%rdi, -8(%rbp)
	movl	%esi, -12(%rbp)
	.loc 1 285 0
	movl	$.LC32, %eax
	movq	-8(%rbp), %rdx
	movq	%rdx, %rcx
	movl	$5, %edx
	movl	$1, %esi
	movq	%rax, %rdi
	call	fwrite
	.loc 1 287 0
	movl	-12(%rbp), %eax
	movl	%eax, %edi
	movl	$0, %eax
	call	cdesc
	movq	-8(%rbp), %rdx
	movq	%rdx, %rsi
	movq	%rax, %rdi
	call	fputs
	.loc 1 289 0
	movl	$.LC33, %eax
	movq	-8(%rbp), %rdx
	movq	%rdx, %rcx
	movl	$3, %edx
	movl	$1, %esi
	movq	%rax, %rdi
	call	fwrite
	.loc 1 290 0
	leave
.LCFI25:
	.cfi_def_cfa 7, 8
	ret
	.cfi_endproc
.LFE8:
	.size	wcomment, .-wcomment
	.section	.rodata
.LC34:
	.string	"int sh_syntabsiz = %d;\n"
.LC35:
	.string	"int sh_syntaxtab[%d] = {\n"
.LC36:
	.string	"};\n"
	.text
	.type	dump_lsyntax, @function
dump_lsyntax:
.LFB9:
	.loc 1 295 0
	.cfi_startproc
	pushq	%rbp
.LCFI26:
	.cfi_def_cfa_offset 16
	.cfi_offset 6, -16
	movq	%rsp, %rbp
.LCFI27:
	.cfi_def_cfa_register 6
	subq	$32, %rsp
	movq	%rdi, -24(%rbp)
	.loc 1 298 0
	movl	$.LC34, %ecx
	movq	-24(%rbp), %rax
	movl	$256, %edx
	movq	%rcx, %rsi
	movq	%rax, %rdi
	movl	$0, %eax
	call	fprintf
	.loc 1 299 0
	movl	$.LC35, %ecx
	movq	-24(%rbp), %rax
	movl	$256, %edx
	movq	%rcx, %rsi
	movq	%rax, %rdi
	movl	$0, %eax
	call	fprintf
	.loc 1 301 0
	movl	$0, -4(%rbp)
	jmp	.L46
.L47:
	.loc 1 303 0 discriminator 2
	movq	-24(%rbp), %rax
	movq	%rax, %rsi
	movl	$9, %edi
	call	_IO_putc
	.loc 1 304 0 discriminator 2
	movl	-4(%rbp), %edx
	movq	-24(%rbp), %rax
	movl	%edx, %esi
	movq	%rax, %rdi
	movl	$0, %eax
	call	dump_lflags
	.loc 1 305 0 discriminator 2
	movq	-24(%rbp), %rax
	movq	%rax, %rsi
	movl	$44, %edi
	call	_IO_putc
	.loc 1 306 0 discriminator 2
	movl	-4(%rbp), %edx
	movq	-24(%rbp), %rax
	movl	%edx, %esi
	movq	%rax, %rdi
	movl	$0, %eax
	call	wcomment
	.loc 1 307 0 discriminator 2
	movq	-24(%rbp), %rax
	movq	%rax, %rsi
	movl	$10, %edi
	call	_IO_putc
	.loc 1 301 0 discriminator 2
	addl	$1, -4(%rbp)
.L46:
	.loc 1 301 0 is_stmt 0 discriminator 1
	cmpl	$255, -4(%rbp)
	jle	.L47
	.loc 1 310 0 is_stmt 1
	movl	$.LC36, %eax
	movq	-24(%rbp), %rdx
	movq	%rdx, %rcx
	movl	$3, %edx
	movl	$1, %esi
	movq	%rax, %rdi
	call	fwrite
	.loc 1 311 0
	leave
.LCFI28:
	.cfi_def_cfa 7, 8
	ret
	.cfi_endproc
.LFE9:
	.size	dump_lsyntax, .-dump_lsyntax
	.section	.rodata
.LC37:
	.string	"do:"
.LC38:
	.string	"w"
.LC39:
	.string	"%s: %s: cannot open: %s\n"
.LC40:
	.string	"stdout"
.LC41:
	.string	"%s\n"
	.text
	.globl	main
	.type	main, @function
main:
.LFB10:
	.loc 1 317 0
	.cfi_startproc
	pushq	%rbp
.LCFI29:
	.cfi_def_cfa_offset 16
	.cfi_offset 6, -16
	movq	%rsp, %rbp
.LCFI30:
	.cfi_def_cfa_register 6
	subq	$48, %rsp
	movl	%edi, -36(%rbp)
	movq	%rsi, -48(%rbp)
	.loc 1 322 0
	movq	-48(%rbp), %rax
	movq	(%rax), %rax
	movl	$47, %esi
	movq	%rax, %rdi
	call	strrchr
	movq	%rax, progname(%rip)
	movq	progname(%rip), %rax
	testq	%rax, %rax
	jne	.L49
	.loc 1 323 0
	movq	-48(%rbp), %rax
	movq	(%rax), %rax
	movq	%rax, progname(%rip)
	jmp	.L50
.L49:
	.loc 1 325 0
	movq	progname(%rip), %rax
	addq	$1, %rax
	movq	%rax, progname(%rip)
.L50:
	.loc 1 327 0
	movq	$0, -24(%rbp)
	.loc 1 328 0
	movl	$0, debug(%rip)
	.loc 1 330 0
	jmp	.L51
.L55:
	.loc 1 332 0
	movl	-4(%rbp), %eax
	cmpl	$100, %eax
	je	.L53
	cmpl	$111, %eax
	je	.L54
	jmp	.L61
.L53:
	.loc 1 335 0
	movl	$1, debug(%rip)
	.loc 1 336 0
	jmp	.L51
.L54:
	.loc 1 338 0
	movq	optarg(%rip), %rax
	movq	%rax, -24(%rbp)
	.loc 1 339 0
	jmp	.L51
.L61:
	.loc 1 341 0
	movl	$0, %eax
	call	usage
.L51:
	.loc 1 330 0 discriminator 1
	movq	-48(%rbp), %rcx
	movl	-36(%rbp), %eax
	movl	$.LC37, %edx
	movq	%rcx, %rsi
	movl	%eax, %edi
	call	getopt
	movl	%eax, -4(%rbp)
	cmpl	$-1, -4(%rbp)
	jne	.L55
	.loc 1 345 0
	movl	optind(%rip), %eax
	subl	%eax, -36(%rbp)
	.loc 1 346 0
	movl	optind(%rip), %eax
	cltq
	salq	$3, %rax
	addq	%rax, -48(%rbp)
	.loc 1 348 0
	cmpq	$0, -24(%rbp)
	je	.L56
	.loc 1 350 0
	movl	$.LC38, %edx
	movq	-24(%rbp), %rax
	movq	%rdx, %rsi
	movq	%rax, %rdi
	call	fopen
	movq	%rax, -16(%rbp)
	.loc 1 351 0
	cmpq	$0, -16(%rbp)
	jne	.L57
	.loc 1 353 0
	call	__errno_location
	movl	(%rax), %eax
	movl	%eax, %edi
	call	strerror
	movq	%rax, %rdi
	movq	progname(%rip), %rdx
	movl	$.LC39, %esi
	movq	stderr(%rip), %rax
	movq	-24(%rbp), %rcx
	movq	%rdi, %r8
	movq	%rax, %rdi
	movl	$0, %eax
	call	fprintf
	.loc 1 354 0
	movl	$1, %edi
	call	exit
.L56:
	.loc 1 359 0
	movq	$.LC40, -24(%rbp)
	.loc 1 360 0
	movq	stdout(%rip), %rax
	movq	%rax, -16(%rbp)
.L57:
	.loc 1 364 0
	movl	$0, -8(%rbp)
	jmp	.L58
.L59:
	.loc 1 365 0 discriminator 2
	movl	-8(%rbp), %eax
	cltq
	movl	$0, lsyntax(,%rax,4)
	.loc 1 364 0 discriminator 2
	addl	$1, -8(%rbp)
.L58:
	.loc 1 364 0 is_stmt 0 discriminator 1
	cmpl	$255, -8(%rbp)
	jle	.L59
	.loc 1 367 0 is_stmt 1
	movl	$0, %eax
	call	load_lsyntax
	.loc 1 369 0
	movl	$.LC41, %ecx
	movq	-16(%rbp), %rax
	movl	$preamble, %edx
	movq	%rcx, %rsi
	movq	%rax, %rdi
	movl	$0, %eax
	call	fprintf
	.loc 1 370 0
	movl	$.LC41, %ecx
	movq	-16(%rbp), %rax
	movl	$includes, %edx
	movq	%rcx, %rsi
	movq	%rax, %rdi
	movl	$0, %eax
	call	fprintf
	.loc 1 372 0
	movq	-16(%rbp), %rax
	movq	%rax, %rdi
	movl	$0, %eax
	call	dump_lsyntax
	.loc 1 374 0
	movq	stdout(%rip), %rax
	cmpq	%rax, -16(%rbp)
	je	.L60
	.loc 1 375 0
	movq	-16(%rbp), %rax
	movq	%rax, %rdi
	call	fclose
.L60:
	.loc 1 376 0
	movl	$0, %edi
	call	exit
	.cfi_endproc
.LFE10:
	.size	main, .-main
	.local	xbuf.4165
	.comm	xbuf.4165,16,16
.Letext0:
	.file 2 "/usr/include/libio.h"
	.file 3 "/usr/include/stdio.h"
	.file 4 "/usr/lib/gcc/x86_64-linux-gnu/4.6/include/stddef.h"
	.file 5 "/usr/include/x86_64-linux-gnu/bits/types.h"
	.file 6 "/usr/include/getopt.h"
	.file 7 "/usr/include/ctype.h"
	.section	.note.GNU-stack,"",@progbits
